; Function Attrs: mustprogress nounwind uwtable
define hidden void @_ZN6hermes2vm17sampling_profiler7SamplerD0Ev(ptr noundef nonnull align 8 dereferenceable(208) %this) unnamed_addr #0 align 2 {
entry:
  store ptr getelementptr inbounds ({ [4 x ptr] }, ptr @_ZTVN6hermes2vm17sampling_profiler7SamplerE, i64 0, i32 0, i64 2), ptr %this, align 8
  %enabledCondVar_.i = getelementptr inbounds i8, ptr %this, i64 160
  tail call void @_ZNSt18condition_variableD1Ev(ptr noundef nonnull align 8 dereferenceable(48) %enabledCondVar_.i) #14
  %timerThread_.i = getelementptr inbounds i8, ptr %this, i64 152
  %agg.tmp.sroa.0.0.copyload.i.i.i = load i64, ptr %timerThread_.i, align 8
  %cmp.i.i.not.i.i = icmp eq i64 %agg.tmp.sroa.0.0.copyload.i.i.i, 0
  br i1 %cmp.i.i.not.i.i, label %_ZNSt6threadD2Ev.exit.i, label %if.then.i.i

if.then.i.i:                                      ; preds = %entry
  tail call void @_ZSt9terminatev() #15
  unreachable

_ZNSt6threadD2Ev.exit.i:                          ; preds = %entry
  %stack.i.i = getelementptr inbounds i8, ptr %this, i64 128
  %0 = load ptr, ptr %stack.i.i, align 8
  %tobool.not.i.i.i.i.i = icmp eq ptr %0, null
  br i1 %tobool.not.i.i.i.i.i, label %_ZN6hermes2vm16SamplingProfiler10StackTraceD2Ev.exit.i, label %if.then.i.i.i.i.i

if.then.i.i.i.i.i:                                ; preds = %_ZNSt6threadD2Ev.exit.i
  tail call void @_ZdlPv(ptr noundef nonnull %0) #16
  br label %_ZN6hermes2vm16SamplingProfiler10StackTraceD2Ev.exit.i

_ZN6hermes2vm16SamplingProfiler10StackTraceD2Ev.exit.i: ; preds = %if.then.i.i.i.i.i, %_ZNSt6threadD2Ev.exit.i
  %profilers_.i = getelementptr inbounds i8, ptr %this, i64 48
  %_M_before_begin.i.i.i.i.i = getelementptr inbounds i8, ptr %this, i64 64
  %1 = load ptr, ptr %_M_before_begin.i.i.i.i.i, align 8
  %tobool.not3.i.i.i.i.i = icmp eq ptr %1, null
  br i1 %tobool.not3.i.i.i.i.i, label %_ZNSt10_HashtableIPN6hermes2vm16SamplingProfilerES3_SaIS3_ENSt8__detail9_IdentityESt8equal_toIS3_ESt4hashIS3_ENS5_18_Mod_range_hashingENS5_20_Default_ranged_hashENS5_20_Prime_rehash_policyENS5_17_Hashtable_traitsILb0ELb1ELb1EEEE5clearEv.exit.i.i.i, label %while.body.i.i.i.i.i

while.body.i.i.i.i.i:                             ; preds = %_ZN6hermes2vm16SamplingProfiler10StackTraceD2Ev.exit.i, %while.body.i.i.i.i.i
  %__n.addr.04.i.i.i.i.i = phi ptr [ %2, %while.body.i.i.i.i.i ], [ %1, %_ZN6hermes2vm16SamplingProfiler10StackTraceD2Ev.exit.i ]
  %2 = load ptr, ptr %__n.addr.04.i.i.i.i.i, align 8
  tail call void @_ZdlPv(ptr noundef nonnull %__n.addr.04.i.i.i.i.i) #16
  %tobool.not.i.i.i.i1.i = icmp eq ptr %2, null
  br i1 %tobool.not.i.i.i.i1.i, label %_ZNSt10_HashtableIPN6hermes2vm16SamplingProfilerES3_SaIS3_ENSt8__detail9_IdentityESt8equal_toIS3_ESt4hashIS3_ENS5_18_Mod_range_hashingENS5_20_Default_ranged_hashENS5_20_Prime_rehash_policyENS5_17_Hashtable_traitsILb0ELb1ELb1EEEE5clearEv.exit.i.i.i, label %while.body.i.i.i.i.i, !llvm.loop !4

_ZNSt10_HashtableIPN6hermes2vm16SamplingProfilerES3_SaIS3_ENSt8__detail9_IdentityESt8equal_toIS3_ESt4hashIS3_ENS5_18_Mod_range_hashingENS5_20_Default_ranged_hashENS5_20_Prime_rehash_policyENS5_17_Hashtable_traitsILb0ELb1ELb1EEEE5clearEv.exit.i.i.i: ; preds = %while.body.i.i.i.i.i, %_ZN6hermes2vm16SamplingProfiler10StackTraceD2Ev.exit.i
  %3 = load ptr, ptr %profilers_.i, align 8
  %_M_bucket_count.i.i.i.i = getelementptr inbounds i8, ptr %this, i64 56
  %4 = load i64, ptr %_M_bucket_count.i.i.i.i, align 8
  %mul.i.i.i.i = shl i64 %4, 3
  tail call void @llvm.memset.p0.i64(ptr align 8 %3, i8 0, i64 %mul.i.i.i.i, i1 false)
  tail call void @llvm.memset.p0.i64(ptr noundef nonnull align 8 dereferenceable(16) %_M_before_begin.i.i.i.i.i, i8 0, i64 16, i1 false)
  %5 = load ptr, ptr %profilers_.i, align 8
  %_M_single_bucket.i.i.i.i.i.i = getelementptr inbounds i8, ptr %this, i64 96
  %cmp.i.i.i.i.i.i = icmp eq ptr %_M_single_bucket.i.i.i.i.i.i, %5
  br i1 %cmp.i.i.i.i.i.i, label %_ZN6hermes2vm17sampling_profiler7SamplerD2Ev.exit, label %if.end.i.i.i.i.i

if.end.i.i.i.i.i:                                 ; preds = %_ZNSt10_HashtableIPN6hermes2vm16SamplingProfilerES3_SaIS3_ENSt8__detail9_IdentityESt8equal_toIS3_ESt4hashIS3_ENS5_18_Mod_range_hashingENS5_20_Default_ranged_hashENS5_20_Prime_rehash_policyENS5_17_Hashtable_traitsILb0ELb1ELb1EEEE5clearEv.exit.i.i.i
  tail call void @_ZdlPv(ptr noundef %5) #16
  br label %_ZN6hermes2vm17sampling_profiler7SamplerD2Ev.exit

_ZN6hermes2vm17sampling_profiler7SamplerD2Ev.exit: ; preds = %_ZNSt10_HashtableIPN6hermes2vm16SamplingProfilerES3_SaIS3_ENSt8__detail9_IdentityESt8equal_toIS3_ESt4hashIS3_ENS5_18_Mod_range_hashingENS5_20_Default_ranged_hashENS5_20_Prime_rehash_policyENS5_17_Hashtable_traitsILb0ELb1ELb1EEEE5clearEv.exit.i.i.i, %if.end.i.i.i.i.i
  tail call void @_ZdlPv(ptr noundef nonnull %this) #16
  ret void
}